; Function Attrs: mustprogress uwtable
define internal { double, double } @_ZL16pipeline_forward5PJ_LPP8PJconsts(double %0, double %1, ptr noundef readonly captures(none) %2) #0 {
  %.sroa.8.sroa.7 = alloca [2 x double], align 8
  %4 = alloca %union.PJ_COORD, align 8
  %5 = alloca %union.PJ_COORD, align 8
  call void @llvm.lifetime.start.p0(i64 16, ptr nonnull %.sroa.8.sroa.7)
  call void @llvm.memset.p0.i64(ptr noundef nonnull align 8 dereferenceable(16) %.sroa.8.sroa.7, i8 0, i64 16, i1 false)
  %6 = getelementptr inbounds nuw i8, ptr %2, i64 88
  %7 = load ptr, ptr %6, align 8, !tbaa !77
  %8 = getelementptr inbounds nuw i8, ptr %7, i64 16
  %.val17 = load ptr, ptr %8, align 8, !tbaa !120
  %9 = getelementptr i8, ptr %7, i64 24
  %.val = load ptr, ptr %9, align 8, !tbaa !120
  %.not27 = icmp eq ptr %.val17, %.val
  br i1 %.not27, label %._crit_edge, label %.lr.ph

.lr.ph:                                           ; preds = %3
  %.sroa.8.0..sroa_idx = getelementptr inbounds nuw i8, ptr %5, i64 8
  %.sroa.8.sroa.7.0..sroa.8.0..sroa_idx.sroa_idx = getelementptr inbounds nuw i8, ptr %5, i64 16
  %.sroa.8.0..sroa_idx8 = getelementptr inbounds nuw i8, ptr %4, i64 8
  %.sroa.8.sroa.7.0..sroa.8.0..sroa_idx8.sroa_idx = getelementptr inbounds nuw i8, ptr %4, i64 16
  br label %10

10:                                               ; preds = %.lr.ph, %17
  %.sroa.8.sroa.0.030 = phi double [ %1, %.lr.ph ], [ %.sroa.8.sroa.0.3.ph, %17 ]
  %.sroa.0.029 = phi double [ %0, %.lr.ph ], [ %.sroa.0.3.ph, %17 ]
  %.sroa.021.028 = phi ptr [ %.val17, %.lr.ph ], [ %18, %17 ]
  %11 = getelementptr inbounds nuw i8, ptr %.sroa.021.028, i64 8
  %12 = load i8, ptr %11, align 8, !tbaa !111, !range !115, !noundef !116
  %13 = trunc nuw i8 %12 to i1
  br i1 %13, label %17, label %14

14:                                               ; preds = %10
  call void @llvm.lifetime.start.p0(i64 32, ptr nonnull %4) #19
  %15 = load ptr, ptr %.sroa.021.028, align 8, !tbaa !109
  store double %.sroa.0.029, ptr %5, align 8
  store double %.sroa.8.sroa.0.030, ptr %.sroa.8.0..sroa_idx, align 8
  call void @llvm.memcpy.p0.p0.i64(ptr noundef nonnull align 8 dereferenceable(16) %.sroa.8.sroa.7.0..sroa.8.0..sroa_idx.sroa_idx, ptr noundef nonnull align 8 dereferenceable(16) %.sroa.8.sroa.7, i64 16, i1 false), !tbaa.struct !139
  call void @_Z18pj_approx_2D_transP8PJconsts12PJ_DIRECTION8PJ_COORD(ptr dead_on_unwind nonnull writable sret(%union.PJ_COORD) align 8 %4, ptr noundef %15, i32 noundef 1, ptr noundef nonnull byval(%union.PJ_COORD) align 8 %5)
  %.sroa.0.0.copyload5 = load double, ptr %4, align 8
  %.sroa.8.sroa.0.0.copyload13 = load double, ptr %.sroa.8.0..sroa_idx8, align 8
  call void @llvm.memcpy.p0.p0.i64(ptr noundef nonnull align 8 dereferenceable(16) %.sroa.8.sroa.7, ptr noundef nonnull align 8 dereferenceable(16) %.sroa.8.sroa.7.0..sroa.8.0..sroa_idx8.sroa_idx, i64 16, i1 false), !tbaa.struct !139
  call void @llvm.lifetime.end.p0(i64 32, ptr nonnull %4) #19
  %16 = fcmp oeq double %.sroa.0.0.copyload5, 0x7FF0000000000000
  br i1 %16, label %._crit_edge, label %17

17:                                               ; preds = %14, %10
  %.sroa.0.3.ph = phi double [ %.sroa.0.029, %10 ], [ %.sroa.0.0.copyload5, %14 ]
  %.sroa.8.sroa.0.3.ph = phi double [ %.sroa.8.sroa.0.030, %10 ], [ %.sroa.8.sroa.0.0.copyload13, %14 ]
  %18 = getelementptr inbounds nuw i8, ptr %.sroa.021.028, i64 16
  %.not = icmp eq ptr %18, %.val
  br i1 %.not, label %._crit_edge, label %10

._crit_edge:                                      ; preds = %17, %14, %3
  %.sroa.0.1 = phi double [ %0, %3 ], [ 0x7FF0000000000000, %14 ], [ %.sroa.0.3.ph, %17 ]
  %.sroa.8.sroa.0.1 = phi double [ %1, %3 ], [ %.sroa.8.sroa.0.0.copyload13, %14 ], [ %.sroa.8.sroa.0.3.ph, %17 ]
  call void @llvm.lifetime.end.p0(i64 16, ptr nonnull %.sroa.8.sroa.7)
  %.fca.0.insert = insertvalue { double, double } poison, double %.sroa.0.1, 0
  %.fca.1.insert = insertvalue { double, double } %.fca.0.insert, double %.sroa.8.sroa.0.1, 1
  ret { double, double } %.fca.1.insert
}